; Function Attrs: mustprogress uwtable
define void @_ZN10open_spiel4file19WriteContentsToFileERKNSt7__cxx1112basic_stringIcSt11char_traitsIcESaIcEEES8_S8_(ptr noundef nonnull align 8 dereferenceable(32) %0, ptr noundef nonnull align 8 dereferenceable(32) %1, ptr noundef nonnull align 8 dereferenceable(32) %2) local_unnamed_addr #3 personality ptr @__gxx_personality_v0 {
  %4 = alloca %"class.open_spiel::file::File", align 8
  call void @_ZN10open_spiel4file4FileC1ERKNSt7__cxx1112basic_stringIcSt11char_traitsIcESaIcEEES9_(ptr noundef nonnull align 8 dereferenceable(8) %4, ptr noundef nonnull align 8 dereferenceable(32) %0, ptr noundef nonnull align 8 dereferenceable(32) %1)
  %5 = call noundef ptr @_ZNKSt7__cxx1112basic_stringIcSt11char_traitsIcESaIcEE4dataEv(ptr noundef nonnull align 8 dereferenceable(32) %2) #17
  %6 = call noundef i64 @_ZNKSt7__cxx1112basic_stringIcSt11char_traitsIcESaIcEE4sizeEv(ptr noundef nonnull align 8 dereferenceable(32) %2) #17
  %7 = icmp sgt i64 %6, -1
  br i1 %7, label %9, label %8

8:                                                ; preds = %3
  call void @llvm.trap()
  unreachable

9:                                                ; preds = %3
  %10 = load ptr, ptr %4, align 8
  %11 = call i64 @fwrite(ptr noundef %5, i64 noundef 1, i64 noundef %6, ptr noundef %10)
  call void @_ZN10open_spiel4file4FileD1Ev(ptr noundef nonnull align 8 dereferenceable(8) %4) #17
  ret void
}